target datalayout = "e-m:e-p270:32:32-p271:32:32-p272:64:64-i64:64-i128:128-f80:128-n8:16:32:64-S128"
target triple = "x86_64-pc-linux-gnu"

@_ZL15pTraceEntryFunc = internal global ptr null, align 8
@_ZL13gTraceContext = internal global ptr null, align 8
@_ZL14pTraceExitFunc = internal global ptr null, align 8
@_ZL14pTraceDataFunc = internal global ptr null, align 8

; Function Attrs: mustprogress nounwind uwtable
define void @utrace_getFunctions_77(ptr noundef %0, ptr noundef %1, ptr noundef %2, ptr noundef %3) #4 {
  %5 = alloca ptr, align 8
  %6 = alloca ptr, align 8
  %7 = alloca ptr, align 8
  %8 = alloca ptr, align 8
  store ptr %0, ptr %5, align 8, !tbaa !24
  store ptr %1, ptr %6, align 8, !tbaa !24
  store ptr %2, ptr %7, align 8, !tbaa !24
  store ptr %3, ptr %8, align 8, !tbaa !24
  %9 = load ptr, ptr @_ZL15pTraceEntryFunc, align 8, !tbaa !7
  %10 = load ptr, ptr %6, align 8, !tbaa !24
  store ptr %9, ptr %10, align 8, !tbaa !7
  %11 = load ptr, ptr @_ZL14pTraceExitFunc, align 8, !tbaa !7
  %12 = load ptr, ptr %7, align 8, !tbaa !24
  store ptr %11, ptr %12, align 8, !tbaa !7
  %13 = load ptr, ptr @_ZL14pTraceDataFunc, align 8, !tbaa !7
  %14 = load ptr, ptr %8, align 8, !tbaa !24
  store ptr %13, ptr %14, align 8, !tbaa !7
  %15 = load ptr, ptr @_ZL13gTraceContext, align 8, !tbaa !7
  %16 = load ptr, ptr %5, align 8, !tbaa !24
  store ptr %15, ptr %16, align 8, !tbaa !7
  ret void
}