; Function Attrs: mustprogress nofree norecurse nosync nounwind willreturn memory(read, argmem: write, inaccessiblemem: none) uwtable
define void @utrace_getFunctions_77(ptr noundef writeonly captures(none) initializes((0, 8)) %0, ptr noundef writeonly captures(none) initializes((0, 8)) %1, ptr noundef writeonly captures(none) initializes((0, 8)) %2, ptr noundef writeonly captures(none) initializes((0, 8)) %3) local_unnamed_addr #8 {
  %5 = load ptr, ptr @_ZL15pTraceEntryFunc, align 8, !tbaa !3
  store ptr %5, ptr %1, align 8, !tbaa !3
  %6 = load ptr, ptr @_ZL14pTraceExitFunc, align 8, !tbaa !3
  store ptr %6, ptr %2, align 8, !tbaa !3
  %7 = load ptr, ptr @_ZL14pTraceDataFunc, align 8, !tbaa !3
  store ptr %7, ptr %3, align 8, !tbaa !3
  %8 = load ptr, ptr @_ZL13gTraceContext, align 8, !tbaa !3
  store ptr %8, ptr %0, align 8, !tbaa !3
  ret void
}